target datalayout = "e-m:e-p270:32:32-p271:32:32-p272:64:64-i64:64-i128:128-f80:128-n8:16:32:64-S128"
target triple = "x86_64-pc-linux-gnu"

%struct.ident_t = type { i32, i32, i32, i32, ptr }
%"class.std::vector" = type { %"struct.std::_Vector_base" }
%"struct.std::_Vector_base" = type { %"struct.std::_Vector_base<long, std::allocator<long>>::_Vector_impl" }
%"struct.std::_Vector_base<long, std::allocator<long>>::_Vector_impl" = type { %"struct.std::_Vector_base<long, std::allocator<long>>::_Vector_impl_data" }
%"struct.std::_Vector_base<long, std::allocator<long>>::_Vector_impl_data" = type { ptr, ptr, ptr }
%"struct.faiss::IndexIVF" = type <{ %"struct.faiss::Index.base", [4 x i8], %"struct.faiss::IndexIVFInterface", ptr, i8, [7 x i8], i64, i32, i32, %"struct.faiss::DirectMap", i8, [7 x i8] }>
%"struct.faiss::Index.base" = type <{ ptr, i32, [4 x i8], i64, i8, i8, [2 x i8], i32, float }>
%"struct.faiss::IndexIVFInterface" = type { ptr, %"struct.faiss::Level1Quantizer", i64, i64 }
%"struct.faiss::Level1Quantizer" = type { ptr, i64, i8, i8, [6 x i8], %"struct.faiss::ClusteringParameters", ptr }
%"struct.faiss::ClusteringParameters" = type <{ i32, i32, i8, i8, i8, i8, i8, [3 x i8], i32, i32, i32, [4 x i8], i64, i8, i8, [6 x i8] }>
%"struct.faiss::DirectMap" = type { i32, %"class.std::vector", %"class.std::unordered_map" }
%"class.std::unordered_map" = type { %"class.std::_Hashtable" }
%"class.std::_Hashtable" = type { ptr, i64, %"struct.std::__detail::_Hash_node_base", i64, %"struct.std::__detail::_Prime_rehash_policy", ptr }
%"struct.std::__detail::_Hash_node_base" = type { ptr }
%"struct.std::__detail::_Prime_rehash_policy" = type { float, i64 }

@3 = private unnamed_addr constant %struct.ident_t { i32 0, i32 514, i32 0, i32 22, ptr @0 }, align 8

; Function Attrs: mustprogress nounwind uwtable
define void @_ZNK5faiss15Level1Quantizer13encode_listnoElPh(ptr noundef nonnull align 8 dereferenceable(80) %0, i64 noundef %1, ptr noundef %2) #1 align 2 {
  %4 = alloca ptr, align 8
  %5 = alloca i64, align 8
  %6 = alloca ptr, align 8
  %7 = alloca i64, align 8
  store ptr %0, ptr %4, align 8, !tbaa !134
  store i64 %1, ptr %5, align 8, !tbaa !9
  store ptr %2, ptr %6, align 8, !tbaa !11
  %8 = load ptr, ptr %4, align 8
  call void @llvm.lifetime.start.p0(i64 8, ptr %7) #20
  %9 = getelementptr inbounds nuw %"struct.faiss::Level1Quantizer", ptr %8, i32 0, i32 1
  %10 = load i64, ptr %9, align 8, !tbaa !102
  %11 = sub i64 %10, 1
  store i64 %11, ptr %7, align 8, !tbaa !9
  br label %12

12:                                               ; preds = %15, %3
  %13 = load i64, ptr %7, align 8, !tbaa !9
  %14 = icmp ugt i64 %13, 0
  br i1 %14, label %15, label %25

15:                                               ; preds = %12
  %16 = load i64, ptr %5, align 8, !tbaa !9
  %17 = and i64 %16, 255
  %18 = trunc i64 %17 to i8
  %19 = load ptr, ptr %6, align 8, !tbaa !11
  %20 = getelementptr inbounds nuw i8, ptr %19, i32 1
  store ptr %20, ptr %6, align 8, !tbaa !11
  store i8 %18, ptr %19, align 1, !tbaa !177
  %21 = load i64, ptr %5, align 8, !tbaa !9
  %22 = ashr i64 %21, 8
  store i64 %22, ptr %5, align 8, !tbaa !9
  %23 = load i64, ptr %7, align 8, !tbaa !9
  %24 = lshr i64 %23, 8
  store i64 %24, ptr %7, align 8, !tbaa !9
  br label %12, !llvm.loop !222

25:                                               ; preds = %12
  call void @llvm.lifetime.end.p0(i64 8, ptr %7) #20
  ret void
}

; Function Attrs: inlinehint mustprogress nounwind uwtable
define linkonce_odr noundef i64 @_ZN5faiss9lo_offsetEm(i64 noundef %0) #5 comdat {
  %2 = alloca i64, align 8
  store i64 %0, ptr %2, align 8, !tbaa !9
  %3 = load i64, ptr %2, align 8, !tbaa !9
  %4 = and i64 %3, 4294967295
  ret i64 %4
}

; Function Attrs: inlinehint mustprogress nounwind uwtable
define linkonce_odr noundef i64 @_ZN5faiss9lo_listnoEm(i64 noundef %0) #5 comdat {
  %2 = alloca i64, align 8
  store i64 %0, ptr %2, align 8, !tbaa !9
  %3 = load i64, ptr %2, align 8, !tbaa !9
  %4 = lshr i64 %3, 32
  ret i64 %4
}

; Function Attrs: noinline norecurse nounwind uwtable
define internal void @_ZNK5faiss8IndexIVF23search_and_return_codesElPKflPfPlPhbPKNS_16SearchParametersE.omp_outlined(ptr noalias noundef %0, ptr noalias noundef %1, ptr noundef nonnull align 8 dereferenceable(8) %2, ptr noundef nonnull align 8 dereferenceable(8) %3, ptr noundef nonnull align 8 dereferenceable(8) %4, ptr noundef nonnull align 8 dereferenceable(8) %5, ptr noundef nonnull align 8 dereferenceable(8) %6, ptr noundef %7, ptr noundef nonnull align 1 dereferenceable(1) %8) #22 personality ptr @__gxx_personality_v0 {
  %10 = alloca ptr, align 8
  %11 = alloca ptr, align 8
  %12 = alloca ptr, align 8
  %13 = alloca ptr, align 8
  %14 = alloca ptr, align 8
  %15 = alloca ptr, align 8
  %16 = alloca ptr, align 8
  %17 = alloca ptr, align 8
  %18 = alloca ptr, align 8
  %19 = alloca i64, align 8
  %20 = alloca i64, align 8
  %21 = alloca i64, align 8
  %22 = alloca i64, align 8
  %23 = alloca i64, align 8
  %24 = alloca i64, align 8
  %25 = alloca i64, align 8
  %26 = alloca i32, align 4
  %27 = alloca i64, align 8
  %28 = alloca i64, align 8
  %29 = alloca ptr, align 8
  %30 = alloca i32, align 4
  %31 = alloca i32, align 4
  %32 = alloca ptr, align 8
  store ptr %0, ptr %10, align 8, !tbaa !296
  store ptr %1, ptr %11, align 8, !tbaa !296
  store ptr %2, ptr %12, align 8, !tbaa !13
  store ptr %3, ptr %13, align 8, !tbaa !13
  store ptr %4, ptr %14, align 8, !tbaa !274
  store ptr %5, ptr %15, align 8, !tbaa !303
  store ptr %6, ptr %16, align 8, !tbaa !13
  store ptr %7, ptr %17, align 8, !tbaa !45
  store ptr %8, ptr %18, align 8, !tbaa !382
  %33 = load ptr, ptr %12, align 8, !tbaa !13
  %34 = load ptr, ptr %13, align 8, !tbaa !13
  %35 = load ptr, ptr %14, align 8, !tbaa !274
  %36 = load ptr, ptr %15, align 8, !tbaa !303
  %37 = load ptr, ptr %16, align 8, !tbaa !13
  %38 = load ptr, ptr %17, align 8, !tbaa !45
  %39 = load ptr, ptr %18, align 8, !tbaa !382
  call void @llvm.lifetime.start.p0(i64 8, ptr %19) #20
  call void @llvm.lifetime.start.p0(i64 8, ptr %20) #20
  %40 = load i64, ptr %34, align 8, !tbaa !9
  %41 = load i64, ptr %33, align 8, !tbaa !9
  %42 = mul nsw i64 %40, %41
  store i64 %42, ptr %20, align 8, !tbaa !9
  call void @llvm.lifetime.start.p0(i64 8, ptr %21) #20
  %43 = load i64, ptr %20, align 8, !tbaa !9
  %44 = sub nsw i64 %43, 0
  %45 = sdiv i64 %44, 1
  %46 = sub nsw i64 %45, 1
  store i64 %46, ptr %21, align 8, !tbaa !9
  call void @llvm.lifetime.start.p0(i64 8, ptr %22) #20
  store i64 0, ptr %22, align 8, !tbaa !9
  call void @llvm.lifetime.end.p0(i64 8, ptr %22) #20
  %47 = load i64, ptr %20, align 8, !tbaa !9
  %48 = icmp slt i64 0, %47
  br i1 %48, label %49, label %145

49:                                               ; preds = %9
  call void @llvm.lifetime.start.p0(i64 8, ptr %23) #20
  store i64 0, ptr %23, align 8, !tbaa !9
  call void @llvm.lifetime.start.p0(i64 8, ptr %24) #20
  %50 = load i64, ptr %21, align 8, !tbaa !9
  store i64 %50, ptr %24, align 8, !tbaa !9
  call void @llvm.lifetime.start.p0(i64 8, ptr %25) #20
  store i64 1, ptr %25, align 8, !tbaa !9
  call void @llvm.lifetime.start.p0(i64 4, ptr %26) #20
  store i32 0, ptr %26, align 4, !tbaa !78
  call void @llvm.lifetime.start.p0(i64 8, ptr %27) #20
  %51 = load ptr, ptr %10, align 8
  %52 = load i32, ptr %51, align 4, !tbaa !78
  call void @__kmpc_for_static_init_8(ptr @3, i32 %52, i32 34, ptr %26, ptr %23, ptr %24, ptr %25, i64 1, i64 1)
  %53 = load i64, ptr %24, align 8, !tbaa !9
  %54 = load i64, ptr %21, align 8, !tbaa !9
  %55 = icmp sgt i64 %53, %54
  br i1 %55, label %56, label %58

56:                                               ; preds = %49
  %57 = load i64, ptr %21, align 8, !tbaa !9
  br label %60

58:                                               ; preds = %49
  %59 = load i64, ptr %24, align 8, !tbaa !9
  br label %60

60:                                               ; preds = %58, %56
  %61 = phi i64 [ %57, %56 ], [ %59, %58 ]
  store i64 %61, ptr %24, align 8, !tbaa !9
  %62 = load i64, ptr %23, align 8, !tbaa !9
  store i64 %62, ptr %19, align 8, !tbaa !9
  br label %63

63:                                               ; preds = %138, %60
  %64 = load i64, ptr %19, align 8, !tbaa !9
  %65 = load i64, ptr %24, align 8, !tbaa !9
  %66 = icmp sle i64 %64, %65
  br i1 %66, label %68, label %67

67:                                               ; preds = %63
  br label %141

68:                                               ; preds = %63
  %69 = load i64, ptr %19, align 8, !tbaa !9
  %70 = mul nsw i64 %69, 1
  %71 = add nsw i64 0, %70
  store i64 %71, ptr %27, align 8, !tbaa !9
  call void @llvm.lifetime.start.p0(i64 8, ptr %28) #20
  %72 = load ptr, ptr %35, align 8, !tbaa !13
  %73 = load i64, ptr %27, align 8, !tbaa !9
  %74 = getelementptr inbounds i64, ptr %72, i64 %73
  %75 = load i64, ptr %74, align 8, !tbaa !9
  store i64 %75, ptr %28, align 8, !tbaa !9
  call void @llvm.lifetime.start.p0(i64 8, ptr %29) #20
  %76 = load ptr, ptr %36, align 8, !tbaa !11
  %77 = load i64, ptr %27, align 8, !tbaa !9
  %78 = load i64, ptr %37, align 8, !tbaa !9
  %79 = mul i64 %77, %78
  %80 = getelementptr inbounds nuw i8, ptr %76, i64 %79
  store ptr %80, ptr %29, align 8, !tbaa !11
  %81 = load i64, ptr %28, align 8, !tbaa !9
  %82 = icmp slt i64 %81, 0
  br i1 %82, label %83, label %86

83:                                               ; preds = %68
  %84 = load ptr, ptr %29, align 8, !tbaa !11
  %85 = load i64, ptr %37, align 8, !tbaa !9
  call void @llvm.memset.p0.i64(ptr align 1 %84, i8 -1, i64 %85, i1 false)
  br label %136

86:                                               ; preds = %68
  call void @llvm.lifetime.start.p0(i64 4, ptr %30) #20
  %87 = load i64, ptr %28, align 8, !tbaa !9
  %88 = call noundef i64 @_ZN5faiss9lo_listnoEm(i64 noundef %87)
  %89 = trunc i64 %88 to i32
  store i32 %89, ptr %30, align 4, !tbaa !78
  call void @llvm.lifetime.start.p0(i64 4, ptr %31) #20
  %90 = load i64, ptr %28, align 8, !tbaa !9
  %91 = call noundef i64 @_ZN5faiss9lo_offsetEm(i64 noundef %90)
  %92 = trunc i64 %91 to i32
  store i32 %92, ptr %31, align 4, !tbaa !78
  call void @llvm.lifetime.start.p0(i64 8, ptr %32) #20
  %93 = getelementptr inbounds nuw %"struct.faiss::IndexIVF", ptr %38, i32 0, i32 3
  %94 = load ptr, ptr %93, align 8, !tbaa !98
  %95 = load i32, ptr %30, align 4, !tbaa !78
  %96 = sext i32 %95 to i64
  %97 = load i32, ptr %31, align 4, !tbaa !78
  %98 = sext i32 %97 to i64
  %99 = load ptr, ptr %94, align 8, !tbaa !23
  %100 = getelementptr inbounds ptr, ptr %99, i64 8
  %101 = load ptr, ptr %100, align 8
  %102 = invoke noundef ptr %101(ptr noundef nonnull align 8 dereferenceable(25) %94, i64 noundef %96, i64 noundef %98)
          to label %103 unwind label %146

103:                                              ; preds = %86
  store ptr %102, ptr %32, align 8, !tbaa !11
  %104 = getelementptr inbounds nuw %"struct.faiss::IndexIVF", ptr %38, i32 0, i32 3
  %105 = load ptr, ptr %104, align 8, !tbaa !98
  %106 = load i32, ptr %30, align 4, !tbaa !78
  %107 = sext i32 %106 to i64
  %108 = load i32, ptr %31, align 4, !tbaa !78
  %109 = sext i32 %108 to i64
  %110 = load ptr, ptr %105, align 8, !tbaa !23
  %111 = getelementptr inbounds ptr, ptr %110, i64 7
  %112 = load ptr, ptr %111, align 8
  %113 = invoke noundef i64 %112(ptr noundef nonnull align 8 dereferenceable(25) %105, i64 noundef %107, i64 noundef %109)
          to label %114 unwind label %146

114:                                              ; preds = %103
  %115 = load ptr, ptr %35, align 8, !tbaa !13
  %116 = load i64, ptr %27, align 8, !tbaa !9
  %117 = getelementptr inbounds i64, ptr %115, i64 %116
  store i64 %113, ptr %117, align 8, !tbaa !9
  %118 = load i8, ptr %39, align 1, !tbaa !42, !range !21, !noundef !22
  %119 = trunc i8 %118 to i1
  br i1 %119, label %120, label %131

120:                                              ; preds = %114
  %121 = getelementptr inbounds i8, ptr %38, i64 48
  %122 = load i32, ptr %30, align 4, !tbaa !78
  %123 = sext i32 %122 to i64
  %124 = load ptr, ptr %29, align 8, !tbaa !11
  call void @_ZNK5faiss15Level1Quantizer13encode_listnoElPh(ptr noundef nonnull align 8 dereferenceable(80) %121, i64 noundef %123, ptr noundef %124)
  %125 = load i64, ptr %37, align 8, !tbaa !9
  %126 = getelementptr inbounds nuw %"struct.faiss::IndexIVF", ptr %38, i32 0, i32 6
  %127 = load i64, ptr %126, align 8, !tbaa !105
  %128 = sub i64 %125, %127
  %129 = load ptr, ptr %29, align 8, !tbaa !11
  %130 = getelementptr inbounds nuw i8, ptr %129, i64 %128
  store ptr %130, ptr %29, align 8, !tbaa !11
  br label %131

131:                                              ; preds = %120, %114
  %132 = load ptr, ptr %29, align 8, !tbaa !11
  %133 = load ptr, ptr %32, align 8, !tbaa !11
  %134 = getelementptr inbounds nuw %"struct.faiss::IndexIVF", ptr %38, i32 0, i32 6
  %135 = load i64, ptr %134, align 8, !tbaa !105
  call void @llvm.memcpy.p0.p0.i64(ptr align 1 %132, ptr align 1 %133, i64 %135, i1 false)
  call void @llvm.lifetime.end.p0(i64 8, ptr %32) #20
  call void @llvm.lifetime.end.p0(i64 4, ptr %31) #20
  call void @llvm.lifetime.end.p0(i64 4, ptr %30) #20
  br label %136

136:                                              ; preds = %131, %83
  call void @llvm.lifetime.end.p0(i64 8, ptr %29) #20
  call void @llvm.lifetime.end.p0(i64 8, ptr %28) #20
  br label %137

137:                                              ; preds = %136
  br label %138

138:                                              ; preds = %137
  %139 = load i64, ptr %19, align 8, !tbaa !9
  %140 = add nsw i64 %139, 1
  store i64 %140, ptr %19, align 8, !tbaa !9
  br label %63

141:                                              ; preds = %67
  br label %142

142:                                              ; preds = %141
  %143 = load ptr, ptr %10, align 8
  %144 = load i32, ptr %143, align 4, !tbaa !78
  call void @__kmpc_for_static_fini(ptr @3, i32 %144)
  call void @llvm.lifetime.end.p0(i64 8, ptr %27) #20
  call void @llvm.lifetime.end.p0(i64 4, ptr %26) #20
  call void @llvm.lifetime.end.p0(i64 8, ptr %25) #20
  call void @llvm.lifetime.end.p0(i64 8, ptr %24) #20
  call void @llvm.lifetime.end.p0(i64 8, ptr %23) #20
  br label %145

145:                                              ; preds = %142, %9
  call void @llvm.lifetime.end.p0(i64 8, ptr %21) #20
  call void @llvm.lifetime.end.p0(i64 8, ptr %20) #20
  call void @llvm.lifetime.end.p0(i64 8, ptr %19) #20
  ret void

146:                                              ; preds = %103, %86
  %147 = landingpad { ptr, i32 }
          catch ptr null
  %148 = extractvalue { ptr, i32 } %147, 0
  call void @__clang_call_terminate(ptr %148) #26
  unreachable
}