; Function Attrs: noinline norecurse nounwind uwtable
define internal void @_ZNK5faiss8IndexIVF23search_and_return_codesElPKflPfPlPhbPKNS_16SearchParametersE.omp_outlined(ptr noalias noundef readonly captures(none) %0, ptr noalias readnone captures(none) %1, ptr noundef nonnull readonly align 8 captures(none) dereferenceable(8) %2, ptr noundef nonnull readonly align 8 captures(none) dereferenceable(8) %3, ptr noundef nonnull readonly align 8 captures(none) dereferenceable(8) %4, ptr noundef nonnull readonly align 8 captures(none) dereferenceable(8) %5, ptr noundef nonnull readonly align 8 captures(none) dereferenceable(8) %6, ptr noundef readonly captures(none) %7, ptr noundef nonnull readonly align 1 captures(none) dereferenceable(1) %8) #29 personality ptr @__gxx_personality_v0 {
  %10 = alloca i64, align 8
  %11 = alloca i64, align 8
  %12 = alloca i64, align 8
  %13 = alloca i32, align 4
  %14 = load i64, ptr %3, align 8, !tbaa !19
  %15 = load i64, ptr %2, align 8, !tbaa !19
  %16 = mul nsw i64 %15, %14
  %17 = icmp sgt i64 %16, 0
  br i1 %17, label %18, label %73

18:                                               ; preds = %9
  %19 = add nsw i64 %16, -1
  call void @llvm.lifetime.start.p0(i64 8, ptr nonnull %10) #27
  store i64 0, ptr %10, align 8, !tbaa !19
  call void @llvm.lifetime.start.p0(i64 8, ptr nonnull %11) #27
  store i64 %19, ptr %11, align 8, !tbaa !19
  call void @llvm.lifetime.start.p0(i64 8, ptr nonnull %12) #27
  store i64 1, ptr %12, align 8, !tbaa !19
  call void @llvm.lifetime.start.p0(i64 4, ptr nonnull %13) #27
  store i32 0, ptr %13, align 4, !tbaa !78
  %20 = load i32, ptr %0, align 4, !tbaa !78
  call void @__kmpc_for_static_init_8(ptr nonnull @3, i32 %20, i32 34, ptr nonnull %13, ptr nonnull %10, ptr nonnull %11, ptr nonnull %12, i64 1, i64 1)
  %21 = load i64, ptr %11, align 8, !tbaa !19
  %22 = call i64 @llvm.smin.i64(i64 %21, i64 %19)
  store i64 %22, ptr %11, align 8, !tbaa !19
  %23 = load i64, ptr %10, align 8, !tbaa !19
  %.not35 = icmp sgt i64 %23, %22
  br i1 %.not35, label %._crit_edge, label %.lr.ph

.lr.ph:                                           ; preds = %18
  %24 = getelementptr inbounds nuw i8, ptr %7, i64 144
  %25 = getelementptr inbounds nuw i8, ptr %7, i64 56
  %26 = getelementptr inbounds nuw i8, ptr %7, i64 160
  br label %27

27:                                               ; preds = %.lr.ph, %70
  %.036 = phi i64 [ %23, %.lr.ph ], [ %71, %70 ]
  %28 = load ptr, ptr %4, align 8, !tbaa !61
  %29 = getelementptr inbounds i64, ptr %28, i64 %.036
  %30 = load i64, ptr %29, align 8, !tbaa !19
  %31 = load ptr, ptr %5, align 8, !tbaa !113
  %32 = load i64, ptr %6, align 8, !tbaa !19
  %33 = mul i64 %32, %.036
  %34 = getelementptr inbounds nuw i8, ptr %31, i64 %33
  %35 = icmp slt i64 %30, 0
  br i1 %35, label %36, label %37

36:                                               ; preds = %27
  call void @llvm.memset.p0.i64(ptr align 1 %34, i8 -1, i64 %32, i1 false)
  br label %70

37:                                               ; preds = %27
  %38 = load ptr, ptr %24, align 8, !tbaa !97
  %39 = lshr i64 %30, 32
  %40 = shl i64 %30, 32
  %41 = ashr exact i64 %40, 32
  %42 = load ptr, ptr %38, align 8, !tbaa !14
  %43 = getelementptr inbounds nuw i8, ptr %42, i64 64
  %44 = load ptr, ptr %43, align 8
  %45 = invoke noundef ptr %44(ptr noundef nonnull align 8 dereferenceable(25) %38, i64 noundef %39, i64 noundef %41)
          to label %46 unwind label %74

46:                                               ; preds = %37
  %47 = load ptr, ptr %24, align 8, !tbaa !97
  %48 = load ptr, ptr %47, align 8, !tbaa !14
  %49 = getelementptr inbounds nuw i8, ptr %48, i64 56
  %50 = load ptr, ptr %49, align 8
  %51 = invoke noundef i64 %50(ptr noundef nonnull align 8 dereferenceable(25) %47, i64 noundef %39, i64 noundef %41)
          to label %52 unwind label %74

52:                                               ; preds = %46
  %53 = load ptr, ptr %4, align 8, !tbaa !61
  %54 = getelementptr inbounds i64, ptr %53, i64 %.036
  store i64 %51, ptr %54, align 8, !tbaa !19
  %55 = load i8, ptr %8, align 1, !tbaa !107, !range !12, !noundef !13
  %56 = trunc nuw i8 %55 to i1
  br i1 %56, label %57, label %._crit_edge37

._crit_edge37:                                    ; preds = %52
  %.pre = load i64, ptr %26, align 8, !tbaa !103
  br label %68

57:                                               ; preds = %52
  %58 = load i64, ptr %25, align 8, !tbaa !99
  %59 = add i64 %58, -1
  %.not7.i = icmp eq i64 %59, 0
  br i1 %.not7.i, label %_ZNK5faiss15Level1Quantizer13encode_listnoElPh.exit, label %.lr.ph.i

.lr.ph.i:                                         ; preds = %57, %.lr.ph.i
  %.010.i = phi i64 [ %63, %.lr.ph.i ], [ %59, %57 ]
  %.059.i = phi ptr [ %61, %.lr.ph.i ], [ %34, %57 ]
  %.068.i = phi i64 [ %62, %.lr.ph.i ], [ %39, %57 ]
  %60 = trunc i64 %.068.i to i8
  %61 = getelementptr inbounds nuw i8, ptr %.059.i, i64 1
  store i8 %60, ptr %.059.i, align 1, !tbaa !67
  %62 = lshr i64 %.068.i, 8
  %63 = lshr i64 %.010.i, 8
  %.not.i = icmp ult i64 %.010.i, 256
  br i1 %.not.i, label %_ZNK5faiss15Level1Quantizer13encode_listnoElPh.exit, label %.lr.ph.i, !llvm.loop !158

_ZNK5faiss15Level1Quantizer13encode_listnoElPh.exit: ; preds = %.lr.ph.i, %57
  %64 = load i64, ptr %6, align 8, !tbaa !19
  %65 = load i64, ptr %26, align 8, !tbaa !103
  %66 = sub i64 %64, %65
  %67 = getelementptr inbounds nuw i8, ptr %34, i64 %66
  br label %68

68:                                               ; preds = %._crit_edge37, %_ZNK5faiss15Level1Quantizer13encode_listnoElPh.exit
  %69 = phi i64 [ %65, %_ZNK5faiss15Level1Quantizer13encode_listnoElPh.exit ], [ %.pre, %._crit_edge37 ]
  %.032 = phi ptr [ %67, %_ZNK5faiss15Level1Quantizer13encode_listnoElPh.exit ], [ %34, %._crit_edge37 ]
  call void @llvm.memcpy.p0.p0.i64(ptr align 1 %.032, ptr align 1 %45, i64 %69, i1 false)
  br label %70

70:                                               ; preds = %68, %36
  %71 = add nsw i64 %.036, 1
  %72 = load i64, ptr %11, align 8, !tbaa !19
  %.not.not = icmp slt i64 %.036, %72
  br i1 %.not.not, label %27, label %._crit_edge

._crit_edge:                                      ; preds = %70, %18
  call void @__kmpc_for_static_fini(ptr nonnull @3, i32 %20)
  call void @llvm.lifetime.end.p0(i64 4, ptr nonnull %13) #27
  call void @llvm.lifetime.end.p0(i64 8, ptr nonnull %12) #27
  call void @llvm.lifetime.end.p0(i64 8, ptr nonnull %11) #27
  call void @llvm.lifetime.end.p0(i64 8, ptr nonnull %10) #27
  br label %73

73:                                               ; preds = %._crit_edge, %9
  ret void

74:                                               ; preds = %46, %37
  %75 = landingpad { ptr, i32 }
          catch ptr null
  %76 = extractvalue { ptr, i32 } %75, 0
  call void @__clang_call_terminate(ptr %76) #41
  unreachable
}